target datalayout = "e-m:e-p270:32:32-p271:32:32-p272:64:64-i64:64-i128:128-f80:128-n8:16:32:64-S128"
target triple = "x86_64-pc-linux-gnu"

%struct.opj_codec_private = type { %union.anon, ptr, %struct.opj_event_mgr, i32, ptr, ptr, ptr, ptr }
%union.anon = type { %struct.opj_decompression }
%struct.opj_decompression = type { ptr, ptr, ptr, ptr, ptr, ptr, ptr, ptr, ptr, ptr, ptr, ptr }
%struct.opj_event_mgr = type { ptr, ptr, ptr, ptr, ptr, ptr }

@.str.1 = private unnamed_addr constant [81 x i8] c"Codec provided to the opj_setup_decoder function is not a decompressor handler.\0A\00", align 1

; Function Attrs: nounwind uwtable
define hidden i32 @opj_setup_decoder(ptr noundef %0, ptr noundef %1) #0 {
  %3 = alloca i32, align 4
  %4 = alloca ptr, align 8
  %5 = alloca ptr, align 8
  %6 = alloca ptr, align 8
  %7 = alloca i32, align 4
  store ptr %0, ptr %4, align 8, !tbaa !3
  store ptr %1, ptr %5, align 8, !tbaa !28
  %8 = load ptr, ptr %4, align 8, !tbaa !3
  %9 = icmp ne ptr %8, null
  br i1 %9, label %10, label %33

10:                                               ; preds = %2
  %11 = load ptr, ptr %5, align 8, !tbaa !28
  %12 = icmp ne ptr %11, null
  br i1 %12, label %13, label %33

13:                                               ; preds = %10
  call void @llvm.lifetime.start.p0(i64 8, ptr %6) #5
  %14 = load ptr, ptr %4, align 8, !tbaa !3
  store ptr %14, ptr %6, align 8, !tbaa !9
  %15 = load ptr, ptr %6, align 8, !tbaa !9
  %16 = getelementptr inbounds nuw %struct.opj_codec_private, ptr %15, i32 0, i32 3
  %17 = load i32, ptr %16, align 8, !tbaa !21
  %18 = icmp ne i32 %17, 0
  br i1 %18, label %23, label %19

19:                                               ; preds = %13
  %20 = load ptr, ptr %6, align 8, !tbaa !9
  %21 = getelementptr inbounds nuw %struct.opj_codec_private, ptr %20, i32 0, i32 2
  %22 = call i32 (ptr, i32, ptr, ...) @opj_event_msg(ptr noundef %21, i32 noundef 1, ptr noundef @.str.1)
  store i32 0, ptr %3, align 4
  store i32 1, ptr %7, align 4
  br label %32

23:                                               ; preds = %13
  %24 = load ptr, ptr %6, align 8, !tbaa !9
  %25 = getelementptr inbounds nuw %struct.opj_codec_private, ptr %24, i32 0, i32 0
  %26 = getelementptr inbounds nuw %struct.opj_decompression, ptr %25, i32 0, i32 6
  %27 = load ptr, ptr %26, align 8, !tbaa !25
  %28 = load ptr, ptr %6, align 8, !tbaa !9
  %29 = getelementptr inbounds nuw %struct.opj_codec_private, ptr %28, i32 0, i32 1
  %30 = load ptr, ptr %29, align 8, !tbaa !27
  %31 = load ptr, ptr %5, align 8, !tbaa !28
  call void %27(ptr noundef %30, ptr noundef %31)
  store i32 1, ptr %3, align 4
  store i32 1, ptr %7, align 4
  br label %32

32:                                               ; preds = %23, %19
  call void @llvm.lifetime.end.p0(i64 8, ptr %6) #5
  br label %34

33:                                               ; preds = %10, %2
  store i32 0, ptr %3, align 4
  br label %34

34:                                               ; preds = %33, %32
  %35 = load i32, ptr %3, align 4
  ret i32 %35
}