; Function Attrs: nounwind uwtable
define hidden range(i32 0, 2) i32 @opj_setup_decoder(ptr noundef %0, ptr noundef %1) local_unnamed_addr #2 {
  %3 = icmp ne ptr %0, null
  %4 = icmp ne ptr %1, null
  %or.cond = and i1 %3, %4
  br i1 %or.cond, label %5, label %16

5:                                                ; preds = %2
  %6 = getelementptr inbounds nuw i8, ptr %0, i64 152
  %7 = load i32, ptr %6, align 8, !tbaa !15
  %.not = icmp eq i32 %7, 0
  br i1 %.not, label %8, label %11

8:                                                ; preds = %5
  %9 = getelementptr inbounds nuw i8, ptr %0, i64 104
  %10 = tail call i32 (ptr, i32, ptr, ...) @opj_event_msg(ptr noundef nonnull %9, i32 noundef 1, ptr noundef nonnull @.str.1) #8
  br label %16

11:                                               ; preds = %5
  %12 = getelementptr inbounds nuw i8, ptr %0, i64 48
  %13 = load ptr, ptr %12, align 8, !tbaa !19
  %14 = getelementptr inbounds nuw i8, ptr %0, i64 96
  %15 = load ptr, ptr %14, align 8, !tbaa !21
  tail call void %13(ptr noundef %15, ptr noundef nonnull %1) #8
  br label %16

16:                                               ; preds = %2, %8, %11
  %.1 = phi i32 [ 1, %11 ], [ 0, %8 ], [ 0, %2 ]
  ret i32 %.1
}